; ModuleID = '26/360.cpp'
source_filename = "26/360.cpp"
target datalayout = "e-m:e-p270:32:32-p271:32:32-p272:64:64-i64:64-f80:128-n8:16:32:64-S128"
target triple = "x86_64-pc-linux-gnu"

%"class.std::ios_base::Init" = type { i8 }
%"class.std::basic_istream" = type { i32 (...)**, i64, %"class.std::basic_ios" }
%"class.std::basic_ios" = type { %"class.std::ios_base", %"class.std::basic_ostream"*, i8, i8, %"class.std::basic_streambuf"*, %"class.std::ctype"*, %"class.std::num_put"*, %"class.std::num_get"* }
%"class.std::ios_base" = type { i32 (...)**, i64, i64, i32, i32, i32, %"struct.std::ios_base::_Callback_list"*, %"struct.std::ios_base::_Words", [8 x %"struct.std::ios_base::_Words"], i32, %"struct.std::ios_base::_Words"*, %"class.std::locale" }
%"struct.std::ios_base::_Callback_list" = type { %"struct.std::ios_base::_Callback_list"*, void (i32, %"class.std::ios_base"*, i32)*, i32, i32 }
%"struct.std::ios_base::_Words" = type { i8*, i64 }
%"class.std::locale" = type { %"class.std::locale::_Impl"* }
%"class.std::locale::_Impl" = type { i32, %"class.std::locale::facet"**, i64, %"class.std::locale::facet"**, i8** }
%"class.std::locale::facet" = type <{ i32 (...)**, i32, [4 x i8] }>
%"class.std::basic_ostream" = type { i32 (...)**, %"class.std::basic_ios" }
%"class.std::basic_streambuf" = type { i32 (...)**, i8*, i8*, i8*, i8*, i8*, i8*, %"class.std::locale" }
%"class.std::ctype" = type <{ %"class.std::locale::facet.base", [4 x i8], %struct.__locale_struct*, i8, [7 x i8], i32*, i32*, i16*, i8, [256 x i8], [256 x i8], i8, [6 x i8] }>
%"class.std::locale::facet.base" = type <{ i32 (...)**, i32 }>
%struct.__locale_struct = type { [13 x %struct.__locale_data*], i16*, i32*, i32*, [13 x i8*] }
%struct.__locale_data = type opaque
%"class.std::num_put" = type { %"class.std::locale::facet.base", [4 x i8] }
%"class.std::num_get" = type { %"class.std::locale::facet.base", [4 x i8] }

@_ZStL8__ioinit = internal global %"class.std::ios_base::Init" zeroinitializer, align 1
@__dso_handle = external hidden global i8
@_ZSt3cin = external dso_local global %"class.std::basic_istream", align 8
@_ZSt4cout = external dso_local global %"class.std::basic_ostream", align 8
@llvm.global_ctors = appending global [1 x { i32, void ()*, i8* }] [{ i32, void ()*, i8* } { i32 65535, void ()* @_GLOBAL__sub_I_360.cpp, i8* null }]

; Function Attrs: noinline uwtable
define internal void @__cxx_global_var_init() #0 section ".text.startup" {
  call void @_ZNSt8ios_base4InitC1Ev(%"class.std::ios_base::Init"* @_ZStL8__ioinit)
  %1 = call i32 @__cxa_atexit(void (i8*)* bitcast (void (%"class.std::ios_base::Init"*)* @_ZNSt8ios_base4InitD1Ev to void (i8*)*), i8* getelementptr inbounds (%"class.std::ios_base::Init", %"class.std::ios_base::Init"* @_ZStL8__ioinit, i32 0, i32 0), i8* @__dso_handle) #3
  ret void
}

declare dso_local void @_ZNSt8ios_base4InitC1Ev(%"class.std::ios_base::Init"*) unnamed_addr #1

; Function Attrs: nounwind
declare dso_local void @_ZNSt8ios_base4InitD1Ev(%"class.std::ios_base::Init"*) unnamed_addr #2

; Function Attrs: nounwind
declare dso_local i32 @__cxa_atexit(void (i8*)*, i8*, i8*) #3

; Function Attrs: noinline norecurse uwtable
define dso_local i32 @main() #4 {
  %1 = alloca i32, align 4
  %2 = alloca [101 x i8], align 16
  %3 = alloca i8*, align 8
  %4 = alloca i8*, align 8
  %5 = alloca i32, align 4
  %6 = alloca i32, align 4
  %7 = alloca i32, align 4
  store i32 0, i32* %1, align 4
  store i8* null, i8** %3, align 8
  store i8* null, i8** %4, align 8
  store i32 0, i32* %7, align 4
  %8 = getelementptr inbounds [101 x i8], [101 x i8]* %2, i64 0, i64 0
  %9 = call dereferenceable(280) %"class.std::basic_istream"* @_ZNSi7getlineEPcl(%"class.std::basic_istream"* @_ZSt3cin, i8* %8, i64 101)
  %10 = getelementptr inbounds [101 x i8], [101 x i8]* %2, i64 0, i64 0
  store i8* %10, i8** %3, align 8
  store i32 1, i32* %5, align 4
  br label %11

11:                                               ; preds = %97, %0
  %12 = load i8*, i8** %3, align 8
  %13 = getelementptr inbounds i8, i8* %12, i32 1
  store i8* %13, i8** %3, align 8
  %14 = load i8, i8* %13, align 1
  %15 = sext i8 %14 to i32
  %16 = icmp ne i32 %15, 0
  br i1 %16, label %17, label %100

17:                                               ; preds = %11
  %18 = load i8*, i8** %3, align 8
  %19 = load i8, i8* %18, align 1
  %20 = sext i8 %19 to i32
  %21 = icmp eq i32 %20, 32
  br i1 %21, label %22, label %96

22:                                               ; preds = %17
  %23 = load i8*, i8** %3, align 8
  %24 = getelementptr inbounds i8, i8* %23, i64 -1
  %25 = load i8, i8* %24, align 1
  %26 = sext i8 %25 to i32
  %27 = icmp ne i32 %26, 32
  br i1 %27, label %28, label %30

28:                                               ; preds = %22
  %29 = load i32, i32* %5, align 4
  store i32 %29, i32* %6, align 4
  br label %30

30:                                               ; preds = %28, %22
  %31 = load i8*, i8** %3, align 8
  %32 = getelementptr inbounds i8, i8* %31, i64 1
  %33 = load i8, i8* %32, align 1
  %34 = sext i8 %33 to i32
  %35 = icmp ne i32 %34, 32
  br i1 %35, label %36, label %95

36:                                               ; preds = %30
  %37 = getelementptr inbounds [101 x i8], [101 x i8]* %2, i64 0, i64 0
  %38 = load i32, i32* %6, align 4
  %39 = sext i32 %38 to i64
  %40 = getelementptr inbounds i8, i8* %37, i64 %39
  store i8* %40, i8** %4, align 8
  br label %41

41:                                               ; preds = %64, %36
  %42 = load i8*, i8** %4, align 8
  %43 = load i32, i32* %5, align 4
  %44 = sext i32 %43 to i64
  %45 = getelementptr inbounds i8, i8* %42, i64 %44
  %46 = load i32, i32* %6, align 4
  %47 = sext i32 %46 to i64
  %48 = sub i64 0, %47
  %49 = getelementptr inbounds i8, i8* %45, i64 %48
  %50 = load i8, i8* %49, align 1
  %51 = sext i8 %50 to i32
  %52 = icmp ne i32 %51, 0
  br i1 %52, label %53, label %67

53:                                               ; preds = %41
  %54 = load i8*, i8** %4, align 8
  %55 = load i32, i32* %5, align 4
  %56 = sext i32 %55 to i64
  %57 = getelementptr inbounds i8, i8* %54, i64 %56
  %58 = load i32, i32* %6, align 4
  %59 = sext i32 %58 to i64
  %60 = sub i64 0, %59
  %61 = getelementptr inbounds i8, i8* %57, i64 %60
  %62 = load i8, i8* %61, align 1
  %63 = load i8*, i8** %4, align 8
  store i8 %62, i8* %63, align 1
  br label %64

64:                                               ; preds = %53
  %65 = load i8*, i8** %4, align 8
  %66 = getelementptr inbounds i8, i8* %65, i32 1
  store i8* %66, i8** %4, align 8
  br label %41

67:                                               ; preds = %41
  %68 = load i8*, i8** %4, align 8
  %69 = load i32, i32* %5, align 4
  %70 = sext i32 %69 to i64
  %71 = getelementptr inbounds i8, i8* %68, i64 %70
  %72 = load i32, i32* %6, align 4
  %73 = sext i32 %72 to i64
  %74 = sub i64 0, %73
  %75 = getelementptr inbounds i8, i8* %71, i64 %74
  %76 = load i8, i8* %75, align 1
  %77 = load i8*, i8** %4, align 8
  store i8 %76, i8* %77, align 1
  %78 = load i32, i32* %5, align 4
  %79 = load i32, i32* %6, align 4
  %80 = sub nsw i32 %78, %79
  %81 = load i8*, i8** %3, align 8
  %82 = sext i32 %80 to i64
  %83 = sub i64 0, %82
  %84 = getelementptr inbounds i8, i8* %81, i64 %83
  store i8* %84, i8** %3, align 8
  %85 = load i32, i32* %5, align 4
  %86 = load i32, i32* %6, align 4
  %87 = sub nsw i32 %85, %86
  %88 = load i32, i32* %7, align 4
  %89 = add nsw i32 %88, %87
  store i32 %89, i32* %7, align 4
  %90 = load i32, i32* %5, align 4
  %91 = load i32, i32* %6, align 4
  %92 = sub nsw i32 %90, %91
  %93 = load i32, i32* %5, align 4
  %94 = sub nsw i32 %93, %92
  store i32 %94, i32* %5, align 4
  br label %95

95:                                               ; preds = %67, %30
  br label %96

96:                                               ; preds = %95, %17
  br label %97

97:                                               ; preds = %96
  %98 = load i32, i32* %5, align 4
  %99 = add nsw i32 %98, 1
  store i32 %99, i32* %5, align 4
  br label %11

100:                                              ; preds = %11
  %101 = getelementptr inbounds [101 x i8], [101 x i8]* %2, i64 0, i64 0
  store i8* %101, i8** %3, align 8
  br label %102

102:                                              ; preds = %113, %100
  %103 = load i8*, i8** %3, align 8
  %104 = load i32, i32* %5, align 4
  %105 = getelementptr inbounds [101 x i8], [101 x i8]* %2, i64 0, i64 0
  %106 = sext i32 %104 to i64
  %107 = getelementptr inbounds i8, i8* %105, i64 %106
  %108 = icmp ult i8* %103, %107
  br i1 %108, label %109, label %116

109:                                              ; preds = %102
  %110 = load i8*, i8** %3, align 8
  %111 = load i8, i8* %110, align 1
  %112 = call dereferenceable(272) %"class.std::basic_ostream"* @_ZStlsISt11char_traitsIcEERSt13basic_ostreamIcT_ES5_c(%"class.std::basic_ostream"* dereferenceable(272) @_ZSt4cout, i8 signext %111)
  br label %113

113:                                              ; preds = %109
  %114 = load i8*, i8** %3, align 8
  %115 = getelementptr inbounds i8, i8* %114, i32 1
  store i8* %115, i8** %3, align 8
  br label %102

116:                                              ; preds = %102
  %117 = call dereferenceable(272) %"class.std::basic_ostream"* @_ZNSolsEPFRSoS_E(%"class.std::basic_ostream"* @_ZSt4cout, %"class.std::basic_ostream"* (%"class.std::basic_ostream"*)* @_ZSt4endlIcSt11char_traitsIcEERSt13basic_ostreamIT_T0_ES6_)
  ret i32 0
}

declare dso_local dereferenceable(280) %"class.std::basic_istream"* @_ZNSi7getlineEPcl(%"class.std::basic_istream"*, i8*, i64) #1

declare dso_local dereferenceable(272) %"class.std::basic_ostream"* @_ZStlsISt11char_traitsIcEERSt13basic_ostreamIcT_ES5_c(%"class.std::basic_ostream"* dereferenceable(272), i8 signext) #1

declare dso_local dereferenceable(272) %"class.std::basic_ostream"* @_ZNSolsEPFRSoS_E(%"class.std::basic_ostream"*, %"class.std::basic_ostream"* (%"class.std::basic_ostream"*)*) #1

declare dso_local dereferenceable(272) %"class.std::basic_ostream"* @_ZSt4endlIcSt11char_traitsIcEERSt13basic_ostreamIT_T0_ES6_(%"class.std::basic_ostream"* dereferenceable(272)) #1

; Function Attrs: noinline uwtable
define internal void @_GLOBAL__sub_I_360.cpp() #0 section ".text.startup" {
  call void @__cxx_global_var_init()
  ret void
}


!llvm.module.flags = !{!0}
!llvm.ident = !{!1}

!0 = !{i32 1, !"wchar_size", i32 4}
!1 = !{!"clang version 10.0.0-4ubuntu1 "}
